target datalayout = "e-m:e-p270:32:32-p271:32:32-p272:64:64-i64:64-i128:128-f80:128-n8:16:32:64-S128"
target triple = "x86_64-pc-linux-gnu"

%"class.cv::Point_" = type { i32, i32 }
%"class.cv::Size_" = type { i32, i32 }
%"class.cv::BaseFilter" = type { ptr, %"class.cv::Size_", %"class.cv::Point_" }
%"class.std::vector.319" = type { %"struct.std::_Vector_base.320" }
%"struct.std::_Vector_base.320" = type { %"struct.std::_Vector_base<cv::Point_<int>, std::allocator<cv::Point_<int>>>::_Vector_impl" }
%"struct.std::_Vector_base<cv::Point_<int>, std::allocator<cv::Point_<int>>>::_Vector_impl" = type { %"struct.std::_Vector_base<cv::Point_<int>, std::allocator<cv::Point_<int>>>::_Vector_impl_data" }
%"struct.std::_Vector_base<cv::Point_<int>, std::allocator<cv::Point_<int>>>::_Vector_impl_data" = type { ptr, ptr, ptr }
%"class.std::vector.144" = type { %"struct.std::_Vector_base.145" }
%"struct.std::_Vector_base.145" = type { %"struct.std::_Vector_base<unsigned char *, std::allocator<unsigned char *>>::_Vector_impl" }
%"struct.std::_Vector_base<unsigned char *, std::allocator<unsigned char *>>::_Vector_impl" = type { %"struct.std::_Vector_base<unsigned char *, std::allocator<unsigned char *>>::_Vector_impl_data" }
%"struct.std::_Vector_base<unsigned char *, std::allocator<unsigned char *>>::_Vector_impl_data" = type { ptr, ptr, ptr }
%"struct.cv::cpu_baseline::(anonymous namespace)::MorphNoVec" = type { i8 }
%"struct.cv::cpu_baseline::(anonymous namespace)::MorphFilter.370" = type <{ %"class.cv::BaseFilter", %"class.std::vector.319", %"class.std::vector.144", %"struct.cv::cpu_baseline::(anonymous namespace)::MorphNoVec", [7 x i8] }>

; Function Attrs: mustprogress nounwind uwtable
define linkonce_odr hidden void @_ZNSt15__new_allocatorIN2cv6Point_IiEEED2Ev(ptr noundef nonnull align 1 dereferenceable(1) %0) unnamed_addr #6 comdat align 2 {
  %2 = alloca ptr, align 8
  store ptr %0, ptr %2, align 8
  ret void
}

; Function Attrs: mustprogress nounwind uwtable
define linkonce_odr hidden void @_ZNSt15__new_allocatorIN2cv6Point_IiEEE10deallocateEPS2_m(ptr noundef nonnull align 1 dereferenceable(1) %0, ptr noundef %1, i64 noundef %2) #6 comdat align 2 {
  %4 = alloca ptr, align 8
  %5 = alloca ptr, align 8
  %6 = alloca i64, align 8
  store ptr %0, ptr %4, align 8
  store ptr %1, ptr %5, align 8
  store i64 %2, ptr %6, align 8
  %7 = load ptr, ptr %5, align 8
  call void @_ZdlPv(ptr noundef %7) #18
  ret void
}

; Function Attrs: mustprogress nounwind uwtable
define linkonce_odr hidden void @_ZNSt15__new_allocatorIPhED2Ev(ptr noundef nonnull align 1 dereferenceable(1) %0) unnamed_addr #6 comdat align 2 {
  %2 = alloca ptr, align 8
  store ptr %0, ptr %2, align 8
  ret void
}

; Function Attrs: mustprogress nounwind uwtable
define linkonce_odr hidden void @_ZNSt15__new_allocatorIPhE10deallocateEPS0_m(ptr noundef nonnull align 1 dereferenceable(1) %0, ptr noundef %1, i64 noundef %2) #6 comdat align 2 {
  %4 = alloca ptr, align 8
  %5 = alloca ptr, align 8
  %6 = alloca i64, align 8
  store ptr %0, ptr %4, align 8
  store ptr %1, ptr %5, align 8
  store i64 %2, ptr %6, align 8
  %7 = load ptr, ptr %5, align 8
  call void @_ZdlPv(ptr noundef %7) #18
  ret void
}

; Function Attrs: mustprogress nounwind uwtable
define linkonce_odr hidden void @_ZNSaIN2cv6Point_IiEEED2Ev(ptr noundef nonnull align 1 dereferenceable(1) %0) unnamed_addr #6 comdat align 2 {
  %2 = alloca ptr, align 8
  store ptr %0, ptr %2, align 8
  %3 = load ptr, ptr %2, align 8
  call void @_ZNSt15__new_allocatorIN2cv6Point_IiEEED2Ev(ptr noundef nonnull align 1 dereferenceable(1) %3) #3
  ret void
}

; Function Attrs: mustprogress uwtable
define linkonce_odr hidden void @_ZNSt16allocator_traitsISaIN2cv6Point_IiEEEE10deallocateERS3_PS2_m(ptr noundef nonnull align 1 dereferenceable(1) %0, ptr noundef %1, i64 noundef %2) #4 comdat align 2 {
  %4 = alloca ptr, align 8
  %5 = alloca ptr, align 8
  %6 = alloca i64, align 8
  store ptr %0, ptr %4, align 8
  store ptr %1, ptr %5, align 8
  store i64 %2, ptr %6, align 8
  %7 = load ptr, ptr %4, align 8
  %8 = load ptr, ptr %5, align 8
  %9 = load i64, ptr %6, align 8
  call void @_ZNSt15__new_allocatorIN2cv6Point_IiEEE10deallocateEPS2_m(ptr noundef nonnull align 1 dereferenceable(1) %7, ptr noundef %8, i64 noundef %9)
  ret void
}

; Function Attrs: mustprogress nounwind uwtable
define linkonce_odr hidden void @_ZNSt12_Destroy_auxILb1EE9__destroyIPN2cv6Point_IiEEEEvT_S6_(ptr noundef %0, ptr noundef %1) #6 comdat align 2 {
  %3 = alloca ptr, align 8
  %4 = alloca ptr, align 8
  store ptr %0, ptr %3, align 8
  store ptr %1, ptr %4, align 8
  ret void
}

; Function Attrs: mustprogress nounwind uwtable
define linkonce_odr hidden void @_ZNSaIPhED2Ev(ptr noundef nonnull align 1 dereferenceable(1) %0) unnamed_addr #6 comdat align 2 {
  %2 = alloca ptr, align 8
  store ptr %0, ptr %2, align 8
  %3 = load ptr, ptr %2, align 8
  call void @_ZNSt15__new_allocatorIPhED2Ev(ptr noundef nonnull align 1 dereferenceable(1) %3) #3
  ret void
}

; Function Attrs: mustprogress uwtable
define linkonce_odr hidden void @_ZNSt16allocator_traitsISaIPhEE10deallocateERS1_PS0_m(ptr noundef nonnull align 1 dereferenceable(1) %0, ptr noundef %1, i64 noundef %2) #4 comdat align 2 {
  %4 = alloca ptr, align 8
  %5 = alloca ptr, align 8
  %6 = alloca i64, align 8
  store ptr %0, ptr %4, align 8
  store ptr %1, ptr %5, align 8
  store i64 %2, ptr %6, align 8
  %7 = load ptr, ptr %4, align 8
  %8 = load ptr, ptr %5, align 8
  %9 = load i64, ptr %6, align 8
  call void @_ZNSt15__new_allocatorIPhE10deallocateEPS0_m(ptr noundef nonnull align 1 dereferenceable(1) %7, ptr noundef %8, i64 noundef %9)
  ret void
}

; Function Attrs: mustprogress nounwind uwtable
define linkonce_odr hidden void @_ZNSt12_Destroy_auxILb1EE9__destroyIPPhEEvT_S4_(ptr noundef %0, ptr noundef %1) #6 comdat align 2 {
  %3 = alloca ptr, align 8
  %4 = alloca ptr, align 8
  store ptr %0, ptr %3, align 8
  store ptr %1, ptr %4, align 8
  ret void
}

; Function Attrs: mustprogress nounwind uwtable
define linkonce_odr hidden void @_ZNSt12_Vector_baseIN2cv6Point_IiEESaIS2_EE12_Vector_implD2Ev(ptr noundef nonnull align 8 dereferenceable(24) %0) unnamed_addr #6 comdat align 2 {
  %2 = alloca ptr, align 8
  store ptr %0, ptr %2, align 8
  %3 = load ptr, ptr %2, align 8
  call void @_ZNSaIN2cv6Point_IiEEED2Ev(ptr noundef nonnull align 1 dereferenceable(1) %3) #3
  ret void
}

; Function Attrs: mustprogress uwtable
define linkonce_odr hidden void @_ZNSt12_Vector_baseIN2cv6Point_IiEESaIS2_EE13_M_deallocateEPS2_m(ptr noundef nonnull align 8 dereferenceable(24) %0, ptr noundef %1, i64 noundef %2) #4 comdat align 2 {
  %4 = alloca ptr, align 8
  %5 = alloca ptr, align 8
  %6 = alloca i64, align 8
  store ptr %0, ptr %4, align 8
  store ptr %1, ptr %5, align 8
  store i64 %2, ptr %6, align 8
  %7 = load ptr, ptr %4, align 8
  %8 = load ptr, ptr %5, align 8
  %9 = icmp ne ptr %8, null
  br i1 %9, label %10, label %14

10:                                               ; preds = %3
  %11 = getelementptr inbounds %"struct.std::_Vector_base.320", ptr %7, i32 0, i32 0
  %12 = load ptr, ptr %5, align 8
  %13 = load i64, ptr %6, align 8
  call void @_ZNSt16allocator_traitsISaIN2cv6Point_IiEEEE10deallocateERS3_PS2_m(ptr noundef nonnull align 1 dereferenceable(1) %11, ptr noundef %12, i64 noundef %13)
  br label %14

14:                                               ; preds = %10, %3
  ret void
}

; Function Attrs: mustprogress uwtable
define linkonce_odr hidden void @_ZSt8_DestroyIPN2cv6Point_IiEEEvT_S4_(ptr noundef %0, ptr noundef %1) #4 comdat {
  %3 = alloca ptr, align 8
  %4 = alloca ptr, align 8
  store ptr %0, ptr %3, align 8
  store ptr %1, ptr %4, align 8
  %5 = load ptr, ptr %3, align 8
  %6 = load ptr, ptr %4, align 8
  call void @_ZNSt12_Destroy_auxILb1EE9__destroyIPN2cv6Point_IiEEEEvT_S6_(ptr noundef %5, ptr noundef %6)
  ret void
}

; Function Attrs: mustprogress nounwind uwtable
define linkonce_odr hidden void @_ZNSt12_Vector_baseIPhSaIS0_EE12_Vector_implD2Ev(ptr noundef nonnull align 8 dereferenceable(24) %0) unnamed_addr #6 comdat align 2 {
  %2 = alloca ptr, align 8
  store ptr %0, ptr %2, align 8
  %3 = load ptr, ptr %2, align 8
  call void @_ZNSaIPhED2Ev(ptr noundef nonnull align 1 dereferenceable(1) %3) #3
  ret void
}

; Function Attrs: mustprogress uwtable
define linkonce_odr hidden void @_ZNSt12_Vector_baseIPhSaIS0_EE13_M_deallocateEPS0_m(ptr noundef nonnull align 8 dereferenceable(24) %0, ptr noundef %1, i64 noundef %2) #4 comdat align 2 {
  %4 = alloca ptr, align 8
  %5 = alloca ptr, align 8
  %6 = alloca i64, align 8
  store ptr %0, ptr %4, align 8
  store ptr %1, ptr %5, align 8
  store i64 %2, ptr %6, align 8
  %7 = load ptr, ptr %4, align 8
  %8 = load ptr, ptr %5, align 8
  %9 = icmp ne ptr %8, null
  br i1 %9, label %10, label %14

10:                                               ; preds = %3
  %11 = getelementptr inbounds %"struct.std::_Vector_base.145", ptr %7, i32 0, i32 0
  %12 = load ptr, ptr %5, align 8
  %13 = load i64, ptr %6, align 8
  call void @_ZNSt16allocator_traitsISaIPhEE10deallocateERS1_PS0_m(ptr noundef nonnull align 1 dereferenceable(1) %11, ptr noundef %12, i64 noundef %13)
  br label %14

14:                                               ; preds = %10, %3
  ret void
}

; Function Attrs: mustprogress uwtable
define linkonce_odr void @_ZSt8_DestroyIPPhEvT_S2_(ptr noundef %0, ptr noundef %1) #4 comdat {
  %3 = alloca ptr, align 8
  %4 = alloca ptr, align 8
  store ptr %0, ptr %3, align 8
  store ptr %1, ptr %4, align 8
  %5 = load ptr, ptr %3, align 8
  %6 = load ptr, ptr %4, align 8
  call void @_ZNSt12_Destroy_auxILb1EE9__destroyIPPhEEvT_S4_(ptr noundef %5, ptr noundef %6)
  ret void
}

; Function Attrs: mustprogress nounwind uwtable
define linkonce_odr hidden void @_ZNSt12_Vector_baseIN2cv6Point_IiEESaIS2_EED2Ev(ptr noundef nonnull align 8 dereferenceable(24) %0) unnamed_addr #6 comdat align 2 personality ptr @__gxx_personality_v0 {
  %2 = alloca ptr, align 8
  store ptr %0, ptr %2, align 8
  %3 = load ptr, ptr %2, align 8
  %4 = getelementptr inbounds %"struct.std::_Vector_base.320", ptr %3, i32 0, i32 0
  %5 = getelementptr inbounds %"struct.std::_Vector_base<cv::Point_<int>, std::allocator<cv::Point_<int>>>::_Vector_impl_data", ptr %4, i32 0, i32 0
  %6 = load ptr, ptr %5, align 8
  %7 = getelementptr inbounds %"struct.std::_Vector_base.320", ptr %3, i32 0, i32 0
  %8 = getelementptr inbounds %"struct.std::_Vector_base<cv::Point_<int>, std::allocator<cv::Point_<int>>>::_Vector_impl_data", ptr %7, i32 0, i32 2
  %9 = load ptr, ptr %8, align 8
  %10 = getelementptr inbounds %"struct.std::_Vector_base.320", ptr %3, i32 0, i32 0
  %11 = getelementptr inbounds %"struct.std::_Vector_base<cv::Point_<int>, std::allocator<cv::Point_<int>>>::_Vector_impl_data", ptr %10, i32 0, i32 0
  %12 = load ptr, ptr %11, align 8
  %13 = ptrtoint ptr %9 to i64
  %14 = ptrtoint ptr %12 to i64
  %15 = sub i64 %13, %14
  %16 = sdiv exact i64 %15, 8
  invoke void @_ZNSt12_Vector_baseIN2cv6Point_IiEESaIS2_EE13_M_deallocateEPS2_m(ptr noundef nonnull align 8 dereferenceable(24) %3, ptr noundef %6, i64 noundef %16)
          to label %17 unwind label %19

17:                                               ; preds = %1
  %18 = getelementptr inbounds %"struct.std::_Vector_base.320", ptr %3, i32 0, i32 0
  call void @_ZNSt12_Vector_baseIN2cv6Point_IiEESaIS2_EE12_Vector_implD2Ev(ptr noundef nonnull align 8 dereferenceable(24) %18) #3
  ret void

19:                                               ; preds = %1
  %20 = landingpad { ptr, i32 }
          catch ptr null
  %21 = extractvalue { ptr, i32 } %20, 0
  call void @__clang_call_terminate(ptr %21) #16
  unreachable
}

; Function Attrs: mustprogress uwtable
define linkonce_odr hidden void @_ZSt8_DestroyIPN2cv6Point_IiEES2_EvT_S4_RSaIT0_E(ptr noundef %0, ptr noundef %1, ptr noundef nonnull align 1 dereferenceable(1) %2) #4 comdat {
  %4 = alloca ptr, align 8
  %5 = alloca ptr, align 8
  %6 = alloca ptr, align 8
  store ptr %0, ptr %4, align 8
  store ptr %1, ptr %5, align 8
  store ptr %2, ptr %6, align 8
  %7 = load ptr, ptr %4, align 8
  %8 = load ptr, ptr %5, align 8
  call void @_ZSt8_DestroyIPN2cv6Point_IiEEEvT_S4_(ptr noundef %7, ptr noundef %8)
  ret void
}

; Function Attrs: mustprogress nounwind uwtable
define linkonce_odr hidden noundef nonnull align 1 dereferenceable(1) ptr @_ZNSt12_Vector_baseIN2cv6Point_IiEESaIS2_EE19_M_get_Tp_allocatorEv(ptr noundef nonnull align 8 dereferenceable(24) %0) #6 comdat align 2 {
  %2 = alloca ptr, align 8
  store ptr %0, ptr %2, align 8
  %3 = load ptr, ptr %2, align 8
  %4 = getelementptr inbounds %"struct.std::_Vector_base.320", ptr %3, i32 0, i32 0
  ret ptr %4
}

; Function Attrs: noreturn nounwind uwtable
define linkonce_odr hidden void @__clang_call_terminate(ptr noundef %0) #9 comdat {
  %2 = call ptr @__cxa_begin_catch(ptr %0) #3
  call void @_ZSt9terminatev() #16
  unreachable
}

; Function Attrs: mustprogress nounwind uwtable
define linkonce_odr hidden void @_ZNSt12_Vector_baseIPhSaIS0_EED2Ev(ptr noundef nonnull align 8 dereferenceable(24) %0) unnamed_addr #6 comdat align 2 personality ptr @__gxx_personality_v0 {
  %2 = alloca ptr, align 8
  store ptr %0, ptr %2, align 8
  %3 = load ptr, ptr %2, align 8
  %4 = getelementptr inbounds %"struct.std::_Vector_base.145", ptr %3, i32 0, i32 0
  %5 = getelementptr inbounds %"struct.std::_Vector_base<unsigned char *, std::allocator<unsigned char *>>::_Vector_impl_data", ptr %4, i32 0, i32 0
  %6 = load ptr, ptr %5, align 8
  %7 = getelementptr inbounds %"struct.std::_Vector_base.145", ptr %3, i32 0, i32 0
  %8 = getelementptr inbounds %"struct.std::_Vector_base<unsigned char *, std::allocator<unsigned char *>>::_Vector_impl_data", ptr %7, i32 0, i32 2
  %9 = load ptr, ptr %8, align 8
  %10 = getelementptr inbounds %"struct.std::_Vector_base.145", ptr %3, i32 0, i32 0
  %11 = getelementptr inbounds %"struct.std::_Vector_base<unsigned char *, std::allocator<unsigned char *>>::_Vector_impl_data", ptr %10, i32 0, i32 0
  %12 = load ptr, ptr %11, align 8
  %13 = ptrtoint ptr %9 to i64
  %14 = ptrtoint ptr %12 to i64
  %15 = sub i64 %13, %14
  %16 = sdiv exact i64 %15, 8
  invoke void @_ZNSt12_Vector_baseIPhSaIS0_EE13_M_deallocateEPS0_m(ptr noundef nonnull align 8 dereferenceable(24) %3, ptr noundef %6, i64 noundef %16)
          to label %17 unwind label %19

17:                                               ; preds = %1
  %18 = getelementptr inbounds %"struct.std::_Vector_base.145", ptr %3, i32 0, i32 0
  call void @_ZNSt12_Vector_baseIPhSaIS0_EE12_Vector_implD2Ev(ptr noundef nonnull align 8 dereferenceable(24) %18) #3
  ret void

19:                                               ; preds = %1
  %20 = landingpad { ptr, i32 }
          catch ptr null
  %21 = extractvalue { ptr, i32 } %20, 0
  call void @__clang_call_terminate(ptr %21) #16
  unreachable
}

; Function Attrs: mustprogress uwtable
define linkonce_odr void @_ZSt8_DestroyIPPhS0_EvT_S2_RSaIT0_E(ptr noundef %0, ptr noundef %1, ptr noundef nonnull align 1 dereferenceable(1) %2) #4 comdat {
  %4 = alloca ptr, align 8
  %5 = alloca ptr, align 8
  %6 = alloca ptr, align 8
  store ptr %0, ptr %4, align 8
  store ptr %1, ptr %5, align 8
  store ptr %2, ptr %6, align 8
  %7 = load ptr, ptr %4, align 8
  %8 = load ptr, ptr %5, align 8
  call void @_ZSt8_DestroyIPPhEvT_S2_(ptr noundef %7, ptr noundef %8)
  ret void
}

; Function Attrs: mustprogress nounwind uwtable
define linkonce_odr hidden noundef nonnull align 1 dereferenceable(1) ptr @_ZNSt12_Vector_baseIPhSaIS0_EE19_M_get_Tp_allocatorEv(ptr noundef nonnull align 8 dereferenceable(24) %0) #6 comdat align 2 {
  %2 = alloca ptr, align 8
  store ptr %0, ptr %2, align 8
  %3 = load ptr, ptr %2, align 8
  %4 = getelementptr inbounds %"struct.std::_Vector_base.145", ptr %3, i32 0, i32 0
  ret ptr %4
}

; Function Attrs: mustprogress nounwind uwtable
define linkonce_odr hidden void @_ZNSt6vectorIN2cv6Point_IiEESaIS2_EED2Ev(ptr noundef nonnull align 8 dereferenceable(24) %0) unnamed_addr #6 comdat align 2 personality ptr @__gxx_personality_v0 {
  %2 = alloca ptr, align 8
  store ptr %0, ptr %2, align 8
  %3 = load ptr, ptr %2, align 8
  %4 = getelementptr inbounds %"struct.std::_Vector_base.320", ptr %3, i32 0, i32 0
  %5 = getelementptr inbounds %"struct.std::_Vector_base<cv::Point_<int>, std::allocator<cv::Point_<int>>>::_Vector_impl_data", ptr %4, i32 0, i32 0
  %6 = load ptr, ptr %5, align 8
  %7 = getelementptr inbounds %"struct.std::_Vector_base.320", ptr %3, i32 0, i32 0
  %8 = getelementptr inbounds %"struct.std::_Vector_base<cv::Point_<int>, std::allocator<cv::Point_<int>>>::_Vector_impl_data", ptr %7, i32 0, i32 1
  %9 = load ptr, ptr %8, align 8
  %10 = call noundef nonnull align 1 dereferenceable(1) ptr @_ZNSt12_Vector_baseIN2cv6Point_IiEESaIS2_EE19_M_get_Tp_allocatorEv(ptr noundef nonnull align 8 dereferenceable(24) %3) #3
  invoke void @_ZSt8_DestroyIPN2cv6Point_IiEES2_EvT_S4_RSaIT0_E(ptr noundef %6, ptr noundef %9, ptr noundef nonnull align 1 dereferenceable(1) %10)
          to label %11 unwind label %12

11:                                               ; preds = %1
  call void @_ZNSt12_Vector_baseIN2cv6Point_IiEESaIS2_EED2Ev(ptr noundef nonnull align 8 dereferenceable(24) %3) #3
  ret void

12:                                               ; preds = %1
  %13 = landingpad { ptr, i32 }
          catch ptr null
  %14 = extractvalue { ptr, i32 } %13, 0
  call void @__clang_call_terminate(ptr %14) #16
  unreachable
}

; Function Attrs: mustprogress nounwind uwtable
define linkonce_odr hidden void @_ZNSt6vectorIPhSaIS0_EED2Ev(ptr noundef nonnull align 8 dereferenceable(24) %0) unnamed_addr #6 comdat align 2 personality ptr @__gxx_personality_v0 {
  %2 = alloca ptr, align 8
  store ptr %0, ptr %2, align 8
  %3 = load ptr, ptr %2, align 8
  %4 = getelementptr inbounds %"struct.std::_Vector_base.145", ptr %3, i32 0, i32 0
  %5 = getelementptr inbounds %"struct.std::_Vector_base<unsigned char *, std::allocator<unsigned char *>>::_Vector_impl_data", ptr %4, i32 0, i32 0
  %6 = load ptr, ptr %5, align 8
  %7 = getelementptr inbounds %"struct.std::_Vector_base.145", ptr %3, i32 0, i32 0
  %8 = getelementptr inbounds %"struct.std::_Vector_base<unsigned char *, std::allocator<unsigned char *>>::_Vector_impl_data", ptr %7, i32 0, i32 1
  %9 = load ptr, ptr %8, align 8
  %10 = call noundef nonnull align 1 dereferenceable(1) ptr @_ZNSt12_Vector_baseIPhSaIS0_EE19_M_get_Tp_allocatorEv(ptr noundef nonnull align 8 dereferenceable(24) %3) #3
  invoke void @_ZSt8_DestroyIPPhS0_EvT_S2_RSaIT0_E(ptr noundef %6, ptr noundef %9, ptr noundef nonnull align 1 dereferenceable(1) %10)
          to label %11 unwind label %12

11:                                               ; preds = %1
  call void @_ZNSt12_Vector_baseIPhSaIS0_EED2Ev(ptr noundef nonnull align 8 dereferenceable(24) %3) #3
  ret void

12:                                               ; preds = %1
  %13 = landingpad { ptr, i32 }
          catch ptr null
  %14 = extractvalue { ptr, i32 } %13, 0
  call void @__clang_call_terminate(ptr %14) #16
  unreachable
}

; Function Attrs: mustprogress nounwind uwtable
define internal void @_ZN2cv12cpu_baseline12_GLOBAL__N_111MorphFilterINS1_5MaxOpItEENS1_10MorphNoVecEED2Ev(ptr noundef nonnull align 8 dereferenceable(73) %0) unnamed_addr #6 align 2 {
  %2 = alloca ptr, align 8
  store ptr %0, ptr %2, align 8
  %3 = load ptr, ptr %2, align 8
  store ptr getelementptr inbounds inrange(-16, 32) ({ [6 x ptr] }, ptr @_ZTVN2cv12cpu_baseline12_GLOBAL__N_111MorphFilterINS1_5MaxOpItEENS1_10MorphNoVecEEE, i32 0, i32 0, i32 2), ptr %3, align 8
  %4 = getelementptr inbounds %"struct.cv::cpu_baseline::(anonymous namespace)::MorphFilter.370", ptr %3, i32 0, i32 2
  call void @_ZNSt6vectorIPhSaIS0_EED2Ev(ptr noundef nonnull align 8 dereferenceable(24) %4) #3
  %5 = getelementptr inbounds %"struct.cv::cpu_baseline::(anonymous namespace)::MorphFilter.370", ptr %3, i32 0, i32 1
  call void @_ZNSt6vectorIN2cv6Point_IiEESaIS2_EED2Ev(ptr noundef nonnull align 8 dereferenceable(24) %5) #3
  call void @_ZN2cv10BaseFilterD2Ev(ptr noundef nonnull align 8 dereferenceable(24) %3) #3
  ret void
}

; Function Attrs: mustprogress nounwind uwtable
define internal void @_ZN2cv12cpu_baseline12_GLOBAL__N_111MorphFilterINS1_5MaxOpItEENS1_10MorphNoVecEED0Ev(ptr noundef nonnull align 8 dereferenceable(73) %0) unnamed_addr #6 align 2 {
  %2 = alloca ptr, align 8
  store ptr %0, ptr %2, align 8
  %3 = load ptr, ptr %2, align 8
  call void @_ZN2cv12cpu_baseline12_GLOBAL__N_111MorphFilterINS1_5MaxOpItEENS1_10MorphNoVecEED2Ev(ptr noundef nonnull align 8 dereferenceable(73) %3) #3
  call void @_ZdlPv(ptr noundef %3) #18
  ret void
}